target datalayout = "e-m:e-p270:32:32-p271:32:32-p272:64:64-i64:64-i128:128-f80:128-n8:16:32:64-S128"
target triple = "x86_64-pc-linux-gnu"

@_ZZN10OpenSubdiv6v3_6_03Far17PatchTableFactory12PatchFaceTag36assignBoundaryPropertiesFromEdgeMaskEiE15edgeMaskToCount = internal constant [16 x i32] [i32 0, i32 1, i32 1, i32 2, i32 1, i32 -1, i32 2, i32 -1, i32 1, i32 2, i32 -1, i32 -1, i32 2, i32 -1, i32 -1, i32 -1], align 16
@_ZZN10OpenSubdiv6v3_6_03Far17PatchTableFactory12PatchFaceTag36assignBoundaryPropertiesFromEdgeMaskEiE15edgeMaskToIndex = internal constant [16 x i32] [i32 -1, i32 0, i32 1, i32 1, i32 2, i32 -1, i32 2, i32 -1, i32 3, i32 0, i32 -1, i32 -1, i32 3, i32 -1, i32 -1, i32 -1], align 16

; Function Attrs: mustprogress nounwind uwtable
define void @_ZN10OpenSubdiv6v3_6_03Far17PatchTableFactory12PatchFaceTag36assignBoundaryPropertiesFromEdgeMaskEi(ptr noundef nonnull align 4 dereferenceable(4) %0, i32 noundef %1) #6 align 2 {
  %3 = alloca ptr, align 8
  %4 = alloca i32, align 4
  store ptr %0, ptr %3, align 8
  store i32 %1, ptr %4, align 4
  %5 = load ptr, ptr %3, align 8
  %6 = load i32, ptr %4, align 4
  %7 = load i32, ptr %5, align 4
  %8 = and i32 %6, 15
  %9 = shl i32 %8, 6
  %10 = and i32 %7, -961
  %11 = or i32 %10, %9
  store i32 %11, ptr %5, align 4
  %12 = load i32, ptr %4, align 4
  %13 = icmp sgt i32 %12, 0
  %14 = zext i1 %13 to i32
  %15 = load i32, ptr %5, align 4
  %16 = and i32 %14, 7
  %17 = shl i32 %16, 15
  %18 = and i32 %15, -229377
  %19 = or i32 %18, %17
  store i32 %19, ptr %5, align 4
  %20 = load i32, ptr %4, align 4
  %21 = sext i32 %20 to i64
  %22 = getelementptr inbounds [16 x i32], ptr @_ZZN10OpenSubdiv6v3_6_03Far17PatchTableFactory12PatchFaceTag36assignBoundaryPropertiesFromEdgeMaskEiE15edgeMaskToCount, i64 0, i64 %21
  %23 = load i32, ptr %22, align 4
  %24 = load i32, ptr %5, align 4
  %25 = and i32 %23, 7
  %26 = shl i32 %25, 12
  %27 = and i32 %24, -28673
  %28 = or i32 %27, %26
  store i32 %28, ptr %5, align 4
  %29 = load i32, ptr %4, align 4
  %30 = sext i32 %29 to i64
  %31 = getelementptr inbounds [16 x i32], ptr @_ZZN10OpenSubdiv6v3_6_03Far17PatchTableFactory12PatchFaceTag36assignBoundaryPropertiesFromEdgeMaskEiE15edgeMaskToIndex, i64 0, i64 %30
  %32 = load i32, ptr %31, align 4
  %33 = load i32, ptr %5, align 4
  %34 = and i32 %32, 3
  %35 = shl i32 %34, 10
  %36 = and i32 %33, -3073
  %37 = or i32 %36, %35
  store i32 %37, ptr %5, align 4
  ret void
}