; Function Attrs: mustprogress nofree norecurse nosync nounwind willreturn memory(argmem: readwrite) uwtable
define void @_ZN10OpenSubdiv6v3_6_03Far17PatchTableFactory12PatchFaceTag36assignBoundaryPropertiesFromEdgeMaskEi(ptr noundef nonnull align 4 captures(none) dereferenceable(4) %0, i32 noundef %1) local_unnamed_addr #11 align 2 {
  %3 = load i32, ptr %0, align 4
  %4 = shl i32 %1, 6
  %5 = and i32 %4, 960
  %6 = and i32 %3, -262081
  %7 = icmp sgt i32 %1, 0
  %8 = select i1 %7, i32 32768, i32 0
  %9 = or disjoint i32 %8, %5
  %10 = or disjoint i32 %9, %6
  %11 = sext i32 %1 to i64
  %12 = getelementptr inbounds [16 x i32], ptr @_ZZN10OpenSubdiv6v3_6_03Far17PatchTableFactory12PatchFaceTag36assignBoundaryPropertiesFromEdgeMaskEiE15edgeMaskToCount, i64 0, i64 %11
  %13 = load i32, ptr %12, align 4
  %14 = shl i32 %13, 12
  %15 = and i32 %14, 28672
  %16 = or disjoint i32 %10, %15
  %17 = getelementptr inbounds [16 x i32], ptr @_ZZN10OpenSubdiv6v3_6_03Far17PatchTableFactory12PatchFaceTag36assignBoundaryPropertiesFromEdgeMaskEiE15edgeMaskToIndex, i64 0, i64 %11
  %18 = load i32, ptr %17, align 4
  %19 = shl i32 %18, 10
  %20 = and i32 %19, 3072
  %21 = or disjoint i32 %16, %20
  store i32 %21, ptr %0, align 4
  ret void
}